
code.out:     file format elf32-littleriscv


Disassembly of section .text:

00000200 <_start>:
 200:	00031197          	auipc	gp,0x31
 204:	c3818193          	addi	gp,gp,-968 # 30e38 <__global_pointer$>
 208:	81018513          	addi	a0,gp,-2032 # 30648 <_edata>
 20c:	83818613          	addi	a2,gp,-1992 # 30670 <_end>
 210:	40a60633          	sub	a2,a2,a0
 214:	00000593          	li	a1,0
 218:	378000ef          	jal	ra,590 <memset>
 21c:	00000517          	auipc	a0,0x0
 220:	57450513          	addi	a0,a0,1396 # 790 <atexit>
 224:	00050863          	beqz	a0,234 <_start+0x34>
 228:	00000517          	auipc	a0,0x0
 22c:	57c50513          	addi	a0,a0,1404 # 7a4 <__libc_fini_array>
 230:	560000ef          	jal	ra,790 <atexit>
 234:	2c0000ef          	jal	ra,4f4 <__libc_init_array>
 238:	00012503          	lw	a0,0(sp)
 23c:	00410593          	addi	a1,sp,4
 240:	00000613          	li	a2,0
 244:	6a4000ef          	jal	ra,8e8 <main>
 248:	2780006f          	j	4c0 <exit>

0000024c <__do_global_dtors_aux>:
 24c:	8101c703          	lbu	a4,-2032(gp) # 30648 <_edata>
 250:	04071463          	bnez	a4,298 <__do_global_dtors_aux+0x4c>
 254:	ff010113          	addi	sp,sp,-16
 258:	00812423          	sw	s0,8(sp)
 25c:	00078413          	mv	s0,a5
 260:	000007b7          	lui	a5,0x0
 264:	00112623          	sw	ra,12(sp)
 268:	00078793          	mv	a5,a5
 26c:	00078a63          	beqz	a5,280 <__do_global_dtors_aux+0x34>
 270:	00030537          	lui	a0,0x30
 274:	62850513          	addi	a0,a0,1576 # 30628 <__FRAME_END__>
 278:	00000097          	auipc	ra,0x0
 27c:	000000e7          	jalr	zero # 0 <_start-0x200>
 280:	00100793          	li	a5,1
 284:	00c12083          	lw	ra,12(sp)
 288:	80f18823          	sb	a5,-2032(gp) # 30648 <_edata>
 28c:	00812403          	lw	s0,8(sp)
 290:	01010113          	addi	sp,sp,16
 294:	00008067          	ret
 298:	00008067          	ret

0000029c <frame_dummy>:
 29c:	000007b7          	lui	a5,0x0
 2a0:	00078793          	mv	a5,a5
 2a4:	00078e63          	beqz	a5,2c0 <frame_dummy+0x24>
 2a8:	000305b7          	lui	a1,0x30
 2ac:	00030537          	lui	a0,0x30
 2b0:	64c58593          	addi	a1,a1,1612 # 3064c <object.5497>
 2b4:	62850513          	addi	a0,a0,1576 # 30628 <__FRAME_END__>
 2b8:	00000317          	auipc	t1,0x0
 2bc:	00000067          	jr	zero # 0 <_start-0x200>
 2c0:	00008067          	ret

000002c4 <print_uart>:
 2c4:	f3010113          	addi	sp,sp,-208
 2c8:	0b312023          	sw	s3,160(sp)
 2cc:	0a812623          	sw	s0,172(sp)
 2d0:	0a912423          	sw	s1,168(sp)
 2d4:	0b212223          	sw	s2,164(sp)
 2d8:	09412e23          	sw	s4,156(sp)
 2dc:	09512c23          	sw	s5,152(sp)
 2e0:	0ab12a23          	sw	a1,180(sp)
 2e4:	0ac12c23          	sw	a2,184(sp)
 2e8:	0ad12e23          	sw	a3,188(sp)
 2ec:	0ce12023          	sw	a4,192(sp)
 2f0:	0cf12223          	sw	a5,196(sp)
 2f4:	0d012423          	sw	a6,200(sp)
 2f8:	0d112623          	sw	a7,204(sp)
 2fc:	00054783          	lbu	a5,0(a0)
 300:	0b410993          	addi	s3,sp,180
 304:	01312623          	sw	s3,12(sp)
 308:	08078863          	beqz	a5,398 <print_uart+0xd4>
 30c:	40000fb7          	lui	t6,0x40000
 310:	8081a583          	lw	a1,-2040(gp) # 30640 <uart_tx_add>
 314:	02500e13          	li	t3,37
 318:	00a00813          	li	a6,10
 31c:	00d00393          	li	t2,13
 320:	06300f13          	li	t5,99
 324:	07300293          	li	t0,115
 328:	07800413          	li	s0,120
 32c:	03000493          	li	s1,48
 330:	01010313          	addi	t1,sp,16
 334:	02d00913          	li	s2,45
 338:	ffff8f93          	addi	t6,t6,-1 # 3fffffff <__global_pointer$+0x3ffcf1c7>
 33c:	00900e93          	li	t4,9
 340:	0200006f          	j	360 <print_uart+0x9c>
 344:	07078c63          	beq	a5,a6,3bc <print_uart+0xf8>
 348:	00068713          	mv	a4,a3
 34c:	00f5a023          	sw	a5,0(a1)
 350:	00050693          	mv	a3,a0
 354:	00070513          	mv	a0,a4
 358:	0016c783          	lbu	a5,1(a3)
 35c:	02078e63          	beqz	a5,398 <print_uart+0xd4>
 360:	00150693          	addi	a3,a0,1
 364:	ffc790e3          	bne	a5,t3,344 <print_uart+0x80>
 368:	00154783          	lbu	a5,1(a0)
 36c:	0009a883          	lw	a7,0(s3)
 370:	00250513          	addi	a0,a0,2
 374:	00498993          	addi	s3,s3,4
 378:	07e78063          	beq	a5,t5,3d8 <print_uart+0x114>
 37c:	10578263          	beq	a5,t0,480 <print_uart+0x1bc>
 380:	0a878e63          	beq	a5,s0,43c <print_uart+0x178>
 384:	04089e63          	bnez	a7,3e0 <print_uart+0x11c>
 388:	0095a023          	sw	s1,0(a1)
 38c:	0016c783          	lbu	a5,1(a3)
 390:	00012823          	sw	zero,16(sp)
 394:	fc0796e3          	bnez	a5,360 <print_uart+0x9c>
 398:	0ac12403          	lw	s0,172(sp)
 39c:	0a812483          	lw	s1,168(sp)
 3a0:	0a412903          	lw	s2,164(sp)
 3a4:	0a012983          	lw	s3,160(sp)
 3a8:	09c12a03          	lw	s4,156(sp)
 3ac:	09812a83          	lw	s5,152(sp)
 3b0:	00100513          	li	a0,1
 3b4:	0d010113          	addi	sp,sp,208
 3b8:	00008067          	ret
 3bc:	0075a023          	sw	t2,0(a1)
 3c0:	00054703          	lbu	a4,0(a0)
 3c4:	00068793          	mv	a5,a3
 3c8:	00050693          	mv	a3,a0
 3cc:	00e5a023          	sw	a4,0(a1)
 3d0:	00078513          	mv	a0,a5
 3d4:	f85ff06f          	j	358 <print_uart+0x94>
 3d8:	0115a023          	sw	a7,0(a1)
 3dc:	f7dff06f          	j	358 <print_uart+0x94>
 3e0:	41f8d793          	srai	a5,a7,0x1f
 3e4:	0117c733          	xor	a4,a5,a7
 3e8:	40f70733          	sub	a4,a4,a5
 3ec:	00030613          	mv	a2,t1
 3f0:	00000a13          	li	s4,0
 3f4:	03076ab3          	rem	s5,a4,a6
 3f8:	000a0793          	mv	a5,s4
 3fc:	00460613          	addi	a2,a2,4
 400:	001a0a13          	addi	s4,s4,1
 404:	03074733          	div	a4,a4,a6
 408:	ff562e23          	sw	s5,-4(a2)
 40c:	fe0714e3          	bnez	a4,3f4 <print_uart+0x130>
 410:	0008d463          	bgez	a7,418 <print_uart+0x154>
 414:	0125a023          	sw	s2,0(a1)
 418:	00279793          	slli	a5,a5,0x2
 41c:	00f307b3          	add	a5,t1,a5
 420:	0007a703          	lw	a4,0(a5) # 0 <_start-0x200>
 424:	00078613          	mv	a2,a5
 428:	ffc78793          	addi	a5,a5,-4
 42c:	03070713          	addi	a4,a4,48
 430:	00e5a023          	sw	a4,0(a1)
 434:	fec316e3          	bne	t1,a2,420 <print_uart+0x15c>
 438:	f21ff06f          	j	358 <print_uart+0x94>
 43c:	06089063          	bnez	a7,49c <print_uart+0x1d8>
 440:	00012823          	sw	zero,16(sp)
 444:	00100793          	li	a5,1
 448:	01f787b3          	add	a5,a5,t6
 44c:	00279793          	slli	a5,a5,0x2
 450:	00f307b3          	add	a5,t1,a5
 454:	0140006f          	j	468 <print_uart+0x1a4>
 458:	0115a023          	sw	a7,0(a1)
 45c:	ffc78713          	addi	a4,a5,-4
 460:	eef30ce3          	beq	t1,a5,358 <print_uart+0x94>
 464:	00070793          	mv	a5,a4
 468:	0007a703          	lw	a4,0(a5)
 46c:	03070893          	addi	a7,a4,48
 470:	05770613          	addi	a2,a4,87
 474:	feeed2e3          	bge	t4,a4,458 <print_uart+0x194>
 478:	00c5a023          	sw	a2,0(a1)
 47c:	fe1ff06f          	j	45c <print_uart+0x198>
 480:	0008c783          	lbu	a5,0(a7)
 484:	ec078ae3          	beqz	a5,358 <print_uart+0x94>
 488:	00f5a023          	sw	a5,0(a1)
 48c:	0018c783          	lbu	a5,1(a7)
 490:	00188893          	addi	a7,a7,1
 494:	fe079ae3          	bnez	a5,488 <print_uart+0x1c4>
 498:	ec1ff06f          	j	358 <print_uart+0x94>
 49c:	00030713          	mv	a4,t1
 4a0:	00000793          	li	a5,0
 4a4:	00f8f613          	andi	a2,a7,15
 4a8:	00c72023          	sw	a2,0(a4)
 4ac:	0048d893          	srli	a7,a7,0x4
 4b0:	00178793          	addi	a5,a5,1
 4b4:	00470713          	addi	a4,a4,4
 4b8:	fe0896e3          	bnez	a7,4a4 <print_uart+0x1e0>
 4bc:	f8dff06f          	j	448 <print_uart+0x184>

000004c0 <exit>:
 4c0:	ff010113          	addi	sp,sp,-16
 4c4:	00000593          	li	a1,0
 4c8:	00812423          	sw	s0,8(sp)
 4cc:	00112623          	sw	ra,12(sp)
 4d0:	00050413          	mv	s0,a0
 4d4:	198000ef          	jal	ra,66c <__call_exitprocs>
 4d8:	000307b7          	lui	a5,0x30
 4dc:	6387a503          	lw	a0,1592(a5) # 30638 <_global_impure_ptr>
 4e0:	03c52783          	lw	a5,60(a0)
 4e4:	00078463          	beqz	a5,4ec <exit+0x2c>
 4e8:	000780e7          	jalr	a5
 4ec:	00040513          	mv	a0,s0
 4f0:	3ac000ef          	jal	ra,89c <_exit>

000004f4 <__libc_init_array>:
 4f4:	ff010113          	addi	sp,sp,-16
 4f8:	00812423          	sw	s0,8(sp)
 4fc:	01212023          	sw	s2,0(sp)
 500:	00000437          	lui	s0,0x0
 504:	00000937          	lui	s2,0x0
 508:	00040793          	mv	a5,s0
 50c:	00090913          	mv	s2,s2
 510:	40f90933          	sub	s2,s2,a5
 514:	00112623          	sw	ra,12(sp)
 518:	00912223          	sw	s1,4(sp)
 51c:	40295913          	srai	s2,s2,0x2
 520:	02090063          	beqz	s2,540 <__libc_init_array+0x4c>
 524:	00040413          	mv	s0,s0
 528:	00000493          	li	s1,0
 52c:	00042783          	lw	a5,0(s0) # 0 <_start-0x200>
 530:	00148493          	addi	s1,s1,1
 534:	00440413          	addi	s0,s0,4
 538:	000780e7          	jalr	a5
 53c:	fe9918e3          	bne	s2,s1,52c <__libc_init_array+0x38>
 540:	00000437          	lui	s0,0x0
 544:	00000937          	lui	s2,0x0
 548:	00040793          	mv	a5,s0
 54c:	00090913          	mv	s2,s2
 550:	40f90933          	sub	s2,s2,a5
 554:	40295913          	srai	s2,s2,0x2
 558:	02090063          	beqz	s2,578 <__libc_init_array+0x84>
 55c:	00040413          	mv	s0,s0
 560:	00000493          	li	s1,0
 564:	00042783          	lw	a5,0(s0) # 0 <_start-0x200>
 568:	00148493          	addi	s1,s1,1
 56c:	00440413          	addi	s0,s0,4
 570:	000780e7          	jalr	a5
 574:	fe9918e3          	bne	s2,s1,564 <__libc_init_array+0x70>
 578:	00c12083          	lw	ra,12(sp)
 57c:	00812403          	lw	s0,8(sp)
 580:	00412483          	lw	s1,4(sp)
 584:	00012903          	lw	s2,0(sp)
 588:	01010113          	addi	sp,sp,16
 58c:	00008067          	ret

00000590 <memset>:
 590:	00f00313          	li	t1,15
 594:	00050713          	mv	a4,a0
 598:	02c37e63          	bgeu	t1,a2,5d4 <memset+0x44>
 59c:	00f77793          	andi	a5,a4,15
 5a0:	0a079063          	bnez	a5,640 <memset+0xb0>
 5a4:	08059263          	bnez	a1,628 <memset+0x98>
 5a8:	ff067693          	andi	a3,a2,-16
 5ac:	00f67613          	andi	a2,a2,15
 5b0:	00e686b3          	add	a3,a3,a4
 5b4:	00b72023          	sw	a1,0(a4)
 5b8:	00b72223          	sw	a1,4(a4)
 5bc:	00b72423          	sw	a1,8(a4)
 5c0:	00b72623          	sw	a1,12(a4)
 5c4:	01070713          	addi	a4,a4,16
 5c8:	fed766e3          	bltu	a4,a3,5b4 <memset+0x24>
 5cc:	00061463          	bnez	a2,5d4 <memset+0x44>
 5d0:	00008067          	ret
 5d4:	40c306b3          	sub	a3,t1,a2
 5d8:	00269693          	slli	a3,a3,0x2
 5dc:	00000297          	auipc	t0,0x0
 5e0:	005686b3          	add	a3,a3,t0
 5e4:	00c68067          	jr	12(a3)
 5e8:	00b70723          	sb	a1,14(a4)
 5ec:	00b706a3          	sb	a1,13(a4)
 5f0:	00b70623          	sb	a1,12(a4)
 5f4:	00b705a3          	sb	a1,11(a4)
 5f8:	00b70523          	sb	a1,10(a4)
 5fc:	00b704a3          	sb	a1,9(a4)
 600:	00b70423          	sb	a1,8(a4)
 604:	00b703a3          	sb	a1,7(a4)
 608:	00b70323          	sb	a1,6(a4)
 60c:	00b702a3          	sb	a1,5(a4)
 610:	00b70223          	sb	a1,4(a4)
 614:	00b701a3          	sb	a1,3(a4)
 618:	00b70123          	sb	a1,2(a4)
 61c:	00b700a3          	sb	a1,1(a4)
 620:	00b70023          	sb	a1,0(a4)
 624:	00008067          	ret
 628:	0ff5f593          	andi	a1,a1,255
 62c:	00859693          	slli	a3,a1,0x8
 630:	00d5e5b3          	or	a1,a1,a3
 634:	01059693          	slli	a3,a1,0x10
 638:	00d5e5b3          	or	a1,a1,a3
 63c:	f6dff06f          	j	5a8 <memset+0x18>
 640:	00279693          	slli	a3,a5,0x2
 644:	00000297          	auipc	t0,0x0
 648:	005686b3          	add	a3,a3,t0
 64c:	00008293          	mv	t0,ra
 650:	fa0680e7          	jalr	-96(a3)
 654:	00028093          	mv	ra,t0
 658:	ff078793          	addi	a5,a5,-16
 65c:	40f70733          	sub	a4,a4,a5
 660:	00f60633          	add	a2,a2,a5
 664:	f6c378e3          	bgeu	t1,a2,5d4 <memset+0x44>
 668:	f3dff06f          	j	5a4 <memset+0x14>

0000066c <__call_exitprocs>:
 66c:	fd010113          	addi	sp,sp,-48
 670:	000307b7          	lui	a5,0x30
 674:	01412c23          	sw	s4,24(sp)
 678:	6387aa03          	lw	s4,1592(a5) # 30638 <_global_impure_ptr>
 67c:	03212023          	sw	s2,32(sp)
 680:	02112623          	sw	ra,44(sp)
 684:	148a2903          	lw	s2,328(s4)
 688:	02812423          	sw	s0,40(sp)
 68c:	02912223          	sw	s1,36(sp)
 690:	01312e23          	sw	s3,28(sp)
 694:	01512a23          	sw	s5,20(sp)
 698:	01612823          	sw	s6,16(sp)
 69c:	01712623          	sw	s7,12(sp)
 6a0:	01812423          	sw	s8,8(sp)
 6a4:	04090063          	beqz	s2,6e4 <__call_exitprocs+0x78>
 6a8:	00050b13          	mv	s6,a0
 6ac:	00058b93          	mv	s7,a1
 6b0:	00100a93          	li	s5,1
 6b4:	fff00993          	li	s3,-1
 6b8:	00492483          	lw	s1,4(s2) # 4 <_start-0x1fc>
 6bc:	fff48413          	addi	s0,s1,-1
 6c0:	02044263          	bltz	s0,6e4 <__call_exitprocs+0x78>
 6c4:	00249493          	slli	s1,s1,0x2
 6c8:	009904b3          	add	s1,s2,s1
 6cc:	040b8463          	beqz	s7,714 <__call_exitprocs+0xa8>
 6d0:	1044a783          	lw	a5,260(s1)
 6d4:	05778063          	beq	a5,s7,714 <__call_exitprocs+0xa8>
 6d8:	fff40413          	addi	s0,s0,-1
 6dc:	ffc48493          	addi	s1,s1,-4
 6e0:	ff3416e3          	bne	s0,s3,6cc <__call_exitprocs+0x60>
 6e4:	02c12083          	lw	ra,44(sp)
 6e8:	02812403          	lw	s0,40(sp)
 6ec:	02412483          	lw	s1,36(sp)
 6f0:	02012903          	lw	s2,32(sp)
 6f4:	01c12983          	lw	s3,28(sp)
 6f8:	01812a03          	lw	s4,24(sp)
 6fc:	01412a83          	lw	s5,20(sp)
 700:	01012b03          	lw	s6,16(sp)
 704:	00c12b83          	lw	s7,12(sp)
 708:	00812c03          	lw	s8,8(sp)
 70c:	03010113          	addi	sp,sp,48
 710:	00008067          	ret
 714:	00492783          	lw	a5,4(s2)
 718:	0044a683          	lw	a3,4(s1)
 71c:	fff78793          	addi	a5,a5,-1
 720:	04878e63          	beq	a5,s0,77c <__call_exitprocs+0x110>
 724:	0004a223          	sw	zero,4(s1)
 728:	fa0688e3          	beqz	a3,6d8 <__call_exitprocs+0x6c>
 72c:	18892783          	lw	a5,392(s2)
 730:	008a9733          	sll	a4,s5,s0
 734:	00492c03          	lw	s8,4(s2)
 738:	00f777b3          	and	a5,a4,a5
 73c:	02079263          	bnez	a5,760 <__call_exitprocs+0xf4>
 740:	000680e7          	jalr	a3
 744:	00492703          	lw	a4,4(s2)
 748:	148a2783          	lw	a5,328(s4)
 74c:	01871463          	bne	a4,s8,754 <__call_exitprocs+0xe8>
 750:	f8f904e3          	beq	s2,a5,6d8 <__call_exitprocs+0x6c>
 754:	f80788e3          	beqz	a5,6e4 <__call_exitprocs+0x78>
 758:	00078913          	mv	s2,a5
 75c:	f5dff06f          	j	6b8 <__call_exitprocs+0x4c>
 760:	18c92783          	lw	a5,396(s2)
 764:	0844a583          	lw	a1,132(s1)
 768:	00f77733          	and	a4,a4,a5
 76c:	00071c63          	bnez	a4,784 <__call_exitprocs+0x118>
 770:	000b0513          	mv	a0,s6
 774:	000680e7          	jalr	a3
 778:	fcdff06f          	j	744 <__call_exitprocs+0xd8>
 77c:	00892223          	sw	s0,4(s2)
 780:	fa9ff06f          	j	728 <__call_exitprocs+0xbc>
 784:	00058513          	mv	a0,a1
 788:	000680e7          	jalr	a3
 78c:	fb9ff06f          	j	744 <__call_exitprocs+0xd8>

00000790 <atexit>:
 790:	00050593          	mv	a1,a0
 794:	00000693          	li	a3,0
 798:	00000613          	li	a2,0
 79c:	00000513          	li	a0,0
 7a0:	0600006f          	j	800 <__register_exitproc>

000007a4 <__libc_fini_array>:
 7a4:	ff010113          	addi	sp,sp,-16
 7a8:	00812423          	sw	s0,8(sp)
 7ac:	000007b7          	lui	a5,0x0
 7b0:	00000437          	lui	s0,0x0
 7b4:	00040413          	mv	s0,s0
 7b8:	00078793          	mv	a5,a5
 7bc:	408787b3          	sub	a5,a5,s0
 7c0:	00912223          	sw	s1,4(sp)
 7c4:	00112623          	sw	ra,12(sp)
 7c8:	4027d493          	srai	s1,a5,0x2
 7cc:	02048063          	beqz	s1,7ec <__libc_fini_array+0x48>
 7d0:	ffc78793          	addi	a5,a5,-4 # fffffffc <__global_pointer$+0xfffcf1c4>
 7d4:	00878433          	add	s0,a5,s0
 7d8:	00042783          	lw	a5,0(s0) # 0 <_start-0x200>
 7dc:	fff48493          	addi	s1,s1,-1
 7e0:	ffc40413          	addi	s0,s0,-4
 7e4:	000780e7          	jalr	a5
 7e8:	fe0498e3          	bnez	s1,7d8 <__libc_fini_array+0x34>
 7ec:	00c12083          	lw	ra,12(sp)
 7f0:	00812403          	lw	s0,8(sp)
 7f4:	00412483          	lw	s1,4(sp)
 7f8:	01010113          	addi	sp,sp,16
 7fc:	00008067          	ret

00000800 <__register_exitproc>:
 800:	000307b7          	lui	a5,0x30
 804:	6387a703          	lw	a4,1592(a5) # 30638 <_global_impure_ptr>
 808:	14872783          	lw	a5,328(a4)
 80c:	04078c63          	beqz	a5,864 <__register_exitproc+0x64>
 810:	0047a703          	lw	a4,4(a5)
 814:	01f00813          	li	a6,31
 818:	06e84e63          	blt	a6,a4,894 <__register_exitproc+0x94>
 81c:	00271813          	slli	a6,a4,0x2
 820:	02050663          	beqz	a0,84c <__register_exitproc+0x4c>
 824:	01078333          	add	t1,a5,a6
 828:	08c32423          	sw	a2,136(t1) # 340 <print_uart+0x7c>
 82c:	1887a883          	lw	a7,392(a5)
 830:	00100613          	li	a2,1
 834:	00e61633          	sll	a2,a2,a4
 838:	00c8e8b3          	or	a7,a7,a2
 83c:	1917a423          	sw	a7,392(a5)
 840:	10d32423          	sw	a3,264(t1)
 844:	00200693          	li	a3,2
 848:	02d50463          	beq	a0,a3,870 <__register_exitproc+0x70>
 84c:	00170713          	addi	a4,a4,1
 850:	00e7a223          	sw	a4,4(a5)
 854:	010787b3          	add	a5,a5,a6
 858:	00b7a423          	sw	a1,8(a5)
 85c:	00000513          	li	a0,0
 860:	00008067          	ret
 864:	14c70793          	addi	a5,a4,332
 868:	14f72423          	sw	a5,328(a4)
 86c:	fa5ff06f          	j	810 <__register_exitproc+0x10>
 870:	18c7a683          	lw	a3,396(a5)
 874:	00170713          	addi	a4,a4,1
 878:	00e7a223          	sw	a4,4(a5)
 87c:	00c6e633          	or	a2,a3,a2
 880:	18c7a623          	sw	a2,396(a5)
 884:	010787b3          	add	a5,a5,a6
 888:	00b7a423          	sw	a1,8(a5)
 88c:	00000513          	li	a0,0
 890:	00008067          	ret
 894:	fff00513          	li	a0,-1
 898:	00008067          	ret

0000089c <_exit>:
 89c:	00000593          	li	a1,0
 8a0:	00000613          	li	a2,0
 8a4:	00000693          	li	a3,0
 8a8:	00000713          	li	a4,0
 8ac:	00000793          	li	a5,0
 8b0:	05d00893          	li	a7,93
 8b4:	00000073          	ecall
 8b8:	00054463          	bltz	a0,8c0 <_exit+0x24>
 8bc:	0000006f          	j	8bc <_exit+0x20>
 8c0:	ff010113          	addi	sp,sp,-16
 8c4:	00812423          	sw	s0,8(sp)
 8c8:	00050413          	mv	s0,a0
 8cc:	00112623          	sw	ra,12(sp)
 8d0:	40800433          	neg	s0,s0
 8d4:	00c000ef          	jal	ra,8e0 <__errno>
 8d8:	00852023          	sw	s0,0(a0)
 8dc:	0000006f          	j	8dc <_exit+0x40>

000008e0 <__errno>:
 8e0:	80c1a503          	lw	a0,-2036(gp) # 30644 <_impure_ptr>
 8e4:	00008067          	ret

Disassembly of section .text.startup:

000008e8 <main>:
 8e8:	ff010113          	addi	sp,sp,-16
 8ec:	00000517          	auipc	a0,0x0
 8f0:	04450513          	addi	a0,a0,68 # 930 <register_fini+0x18>
 8f4:	00112623          	sw	ra,12(sp)
 8f8:	9cdff0ef          	jal	ra,2c4 <print_uart>
 8fc:	00000517          	auipc	a0,0x0
 900:	03450513          	addi	a0,a0,52 # 930 <register_fini+0x18>
 904:	9c1ff0ef          	jal	ra,2c4 <print_uart>
 908:	00c12083          	lw	ra,12(sp)
 90c:	00000513          	li	a0,0
 910:	01010113          	addi	sp,sp,16
 914:	00008067          	ret

00000918 <register_fini>:
 918:	000007b7          	lui	a5,0x0
 91c:	00078793          	mv	a5,a5
 920:	00078663          	beqz	a5,92c <register_fini+0x14>
 924:	7a400513          	li	a0,1956
 928:	e69ff06f          	j	790 <atexit>
 92c:	00008067          	ret
